((dp0
I0
I0
sI1
I1
sI2
I2
sI3
I3
sI4
I4
sI5
I5
sI6
I6
sI7
I7
sI8
I8
s(lp1
S'right'
p2
aS'up'
p3
aS'left'
p4
aS'down'
p5
aS'down_right'
p6
aS'down_left'
p7
aS'up_right'
p8
aS'up_left'
p9
aI100
I5
tp10
.